target datalayout = "e-m:e-p270:32:32-p271:32:32-p272:64:64-i64:64-i128:128-f80:128-n8:16:32:64-S128"
target triple = "x86_64-pc-linux-gnu"

%struct._value_string_ext = type { ptr, i32, i32, ptr, ptr }
%struct.expert_field = type { i32, i32 }

@hf_r3_responselength = internal global i32 0, align 4
@hf_r3_responsecommand = internal global i32 0, align 4
@r3_responsetypenames_ext = internal global %struct._value_string_ext { ptr @_try_val_to_str_ext_init, i32 0, i32 51, ptr @r3_responsetypenames, ptr @.str.1243 }, align 8
@ei_r3_response_hasdata_octet_3 = internal global %struct.expert_field zeroinitializer, align 4
@.str.1858 = private unnamed_addr constant [24 x i8] c"[Unknown Response Type]\00", align 1
@.str.1859 = private unnamed_addr constant [25 x i8] c"Response Packet: %s (%u)\00", align 1

; Function Attrs: null_pointer_is_valid sspstrong uwtable
define internal void @dissect_r3_cmd_response(ptr noundef %0, i32 noundef %1, i32 noundef %2, ptr noundef %3, ptr noundef %4) #0 {
  %6 = alloca ptr, align 8
  %7 = alloca i32, align 4
  %8 = alloca i32, align 4
  %9 = alloca ptr, align 8
  %10 = alloca ptr, align 8
  %11 = alloca i8, align 1
  %12 = alloca i32, align 4
  %13 = alloca ptr, align 8
  %14 = alloca ptr, align 8
  store ptr %0, ptr %6, align 8
  store i32 %1, ptr %7, align 4
  store i32 %2, ptr %8, align 4
  store ptr %3, ptr %9, align 8
  store ptr %4, ptr %10, align 8
  call void @llvm.lifetime.start.p0(i64 1, ptr %11) #5
  %15 = load ptr, ptr %6, align 8
  %16 = load i32, ptr %7, align 4
  %17 = add i32 %16, 0
  %18 = call zeroext i8 @tvb_get_uint8(ptr noundef %15, i32 noundef %17)
  store i8 %18, ptr %11, align 1
  call void @llvm.lifetime.start.p0(i64 4, ptr %12) #5
  %19 = load ptr, ptr %6, align 8
  %20 = load i32, ptr %7, align 4
  %21 = add i32 %20, 2
  %22 = call zeroext i8 @tvb_get_uint8(ptr noundef %19, i32 noundef %21)
  %23 = zext i8 %22 to i32
  store i32 %23, ptr %12, align 4
  call void @llvm.lifetime.start.p0(i64 8, ptr %13) #5
  %24 = load ptr, ptr %6, align 8
  %25 = load i32, ptr %7, align 4
  %26 = load i8, ptr %11, align 1
  %27 = zext i8 %26 to i32
  %28 = call ptr @tvb_new_subset_length(ptr noundef %24, i32 noundef %25, i32 noundef %27)
  store ptr %28, ptr %13, align 8
  %29 = load ptr, ptr %10, align 8
  %30 = icmp ne ptr %29, null
  br i1 %30, label %31, label %50

31:                                               ; preds = %5
  call void @llvm.lifetime.start.p0(i64 8, ptr %14) #5
  %32 = load i32, ptr %12, align 4
  %33 = call ptr @val_to_str_ext_const(i32 noundef %32, ptr noundef @r3_responsetypenames_ext, ptr noundef @.str.1858)
  store ptr %33, ptr %14, align 8
  %34 = load ptr, ptr %10, align 8
  %35 = call ptr @proto_tree_get_parent(ptr noundef %34)
  %36 = load ptr, ptr %14, align 8
  %37 = load i32, ptr %12, align 4
  call void (ptr, ptr, ...) @proto_item_set_text(ptr noundef %35, ptr noundef @.str.1859, ptr noundef %36, i32 noundef %37)
  %38 = load ptr, ptr %10, align 8
  %39 = load i32, ptr @hf_r3_responselength, align 4
  %40 = load ptr, ptr %6, align 8
  %41 = load i32, ptr %7, align 4
  %42 = add i32 %41, 0
  %43 = call ptr @proto_tree_add_item(ptr noundef %38, i32 noundef %39, ptr noundef %40, i32 noundef %42, i32 noundef 1, i32 noundef -2147483648)
  %44 = load ptr, ptr %10, align 8
  %45 = load i32, ptr @hf_r3_responsecommand, align 4
  %46 = load ptr, ptr %6, align 8
  %47 = load i32, ptr %7, align 4
  %48 = add i32 %47, 1
  %49 = call ptr @proto_tree_add_item(ptr noundef %44, i32 noundef %45, ptr noundef %46, i32 noundef %48, i32 noundef 1, i32 noundef -2147483648)
  call void @llvm.lifetime.end.p0(i64 8, ptr %14) #5
  br label %50

50:                                               ; preds = %31, %5
  %51 = load i32, ptr %12, align 4
  %52 = icmp uge i32 %51, 51
  br i1 %52, label %53, label %58

53:                                               ; preds = %50
  %54 = load ptr, ptr %9, align 8
  %55 = load ptr, ptr %10, align 8
  %56 = call ptr @proto_tree_get_parent(ptr noundef %55)
  %57 = call ptr @expert_add_info(ptr noundef %54, ptr noundef %56, ptr noundef @ei_r3_response_hasdata_octet_3)
  br label %74

58:                                               ; preds = %50
  %59 = load i32, ptr %12, align 4
  %60 = zext i32 %59 to i64
  %61 = getelementptr [51 x ptr], ptr @r3response_dissect, i64 0, i64 %60
  %62 = load ptr, ptr %61, align 8
  %63 = icmp ne ptr %62, null
  br i1 %63, label %64, label %73

64:                                               ; preds = %58
  %65 = load i32, ptr %12, align 4
  %66 = zext i32 %65 to i64
  %67 = getelementptr [51 x ptr], ptr @r3response_dissect, i64 0, i64 %66
  %68 = load ptr, ptr %67, align 8
  %69 = load ptr, ptr %13, align 8
  %70 = load i32, ptr %8, align 4
  %71 = load ptr, ptr %9, align 8
  %72 = load ptr, ptr %10, align 8
  call void %68(ptr noundef %69, i32 noundef 0, i32 noundef %70, ptr noundef %71, ptr noundef %72)
  br label %73

73:                                               ; preds = %64, %58
  br label %74

74:                                               ; preds = %73, %53
  call void @llvm.lifetime.end.p0(i64 8, ptr %13) #5
  call void @llvm.lifetime.end.p0(i64 4, ptr %12) #5
  call void @llvm.lifetime.end.p0(i64 1, ptr %11) #5
  ret void
}