; Function Attrs: null_pointer_is_valid sspstrong uwtable
define internal void @dissect_r3_cmd_response(ptr noundef %0, i32 noundef %1, i32 noundef %2, ptr noundef %3, ptr noundef %4) #0 {
  %6 = tail call zeroext i8 @tvb_get_uint8(ptr noundef %0, i32 noundef %1)
  %7 = add i32 %1, 2
  %8 = tail call zeroext i8 @tvb_get_uint8(ptr noundef %0, i32 noundef %7)
  %9 = zext i8 %6 to i32
  %10 = tail call ptr @tvb_new_subset_length(ptr noundef %0, i32 noundef %1, i32 noundef %9)
  %.not = icmp eq ptr %4, null
  br i1 %.not, label %20, label %11

11:                                               ; preds = %5
  %12 = zext i8 %8 to i32
  %13 = tail call ptr @val_to_str_ext_const(i32 noundef %12, ptr noundef nonnull @r3_responsetypenames_ext, ptr noundef nonnull @.str.1858)
  %14 = tail call ptr @proto_tree_get_parent(ptr noundef nonnull %4)
  tail call void (ptr, ptr, ...) @proto_item_set_text(ptr noundef %14, ptr noundef nonnull @.str.1859, ptr noundef %13, i32 noundef %12)
  %15 = load i32, ptr @hf_r3_responselength, align 4
  %16 = tail call ptr @proto_tree_add_item(ptr noundef nonnull %4, i32 noundef %15, ptr noundef %0, i32 noundef %1, i32 noundef 1, i32 noundef -2147483648)
  %17 = load i32, ptr @hf_r3_responsecommand, align 4
  %18 = add i32 %1, 1
  %19 = tail call ptr @proto_tree_add_item(ptr noundef nonnull %4, i32 noundef %17, ptr noundef %0, i32 noundef %18, i32 noundef 1, i32 noundef -2147483648)
  br label %20

20:                                               ; preds = %11, %5
  %21 = icmp ugt i8 %8, 50
  br i1 %21, label %22, label %25

22:                                               ; preds = %20
  %23 = tail call ptr @proto_tree_get_parent(ptr noundef %4)
  %24 = tail call ptr @expert_add_info(ptr noundef %3, ptr noundef %23, ptr noundef nonnull @ei_r3_response_hasdata_octet_3)
  br label %29

25:                                               ; preds = %20
  %26 = zext nneg i8 %8 to i64
  %27 = getelementptr [51 x ptr], ptr @r3response_dissect, i64 0, i64 %26
  %28 = load ptr, ptr %27, align 8
  tail call void %28(ptr noundef %10, i32 noundef 0, i32 noundef %2, ptr noundef %3, ptr noundef %4)
  br label %29

29:                                               ; preds = %25, %22
  ret void
}